; Function Attrs: mustprogress uwtable
define void @_ZN7Imf_3_214TypedAttributeIN9Imath_3_24Vec3IdEEE13readValueFromERNS_7IStreamEii(ptr nocapture noundef nonnull writeonly align 8 dereferenceable(32) %this, ptr noundef nonnull align 8 dereferenceable(40) %is, i32 %size, i32 %version) unnamed_addr #3 align 2 {
entry:
  %b.i7 = alloca [8 x i8], align 8
  %b.i3 = alloca [8 x i8], align 8
  %b.i = alloca [8 x i8], align 8
  %_value = getelementptr inbounds i8, ptr %this, i64 8
  call void @llvm.lifetime.start.p0(i64 8, ptr nonnull %b.i)
  %vtable.i.i.i = load ptr, ptr %is, align 8
  %vfn.i.i.i = getelementptr inbounds i8, ptr %vtable.i.i.i, i64 24
  %0 = load ptr, ptr %vfn.i.i.i, align 8
  %call.i.i.i = call noundef zeroext i1 %0(ptr noundef nonnull align 8 dereferenceable(40) %is, ptr noundef nonnull %b.i, i32 noundef 8)
  %1 = load i64, ptr %b.i, align 8
  store i64 %1, ptr %_value, align 8
  call void @llvm.lifetime.end.p0(i64 8, ptr nonnull %b.i)
  %y = getelementptr inbounds i8, ptr %this, i64 16
  call void @llvm.lifetime.start.p0(i64 8, ptr nonnull %b.i3)
  %vtable.i.i.i4 = load ptr, ptr %is, align 8
  %vfn.i.i.i5 = getelementptr inbounds i8, ptr %vtable.i.i.i4, i64 24
  %2 = load ptr, ptr %vfn.i.i.i5, align 8
  %call.i.i.i6 = call noundef zeroext i1 %2(ptr noundef nonnull align 8 dereferenceable(40) %is, ptr noundef nonnull %b.i3, i32 noundef 8)
  %3 = load i64, ptr %b.i3, align 8
  store i64 %3, ptr %y, align 8
  call void @llvm.lifetime.end.p0(i64 8, ptr nonnull %b.i3)
  %z = getelementptr inbounds i8, ptr %this, i64 24
  call void @llvm.lifetime.start.p0(i64 8, ptr nonnull %b.i7)
  %vtable.i.i.i8 = load ptr, ptr %is, align 8
  %vfn.i.i.i9 = getelementptr inbounds i8, ptr %vtable.i.i.i8, i64 24
  %4 = load ptr, ptr %vfn.i.i.i9, align 8
  %call.i.i.i10 = call noundef zeroext i1 %4(ptr noundef nonnull align 8 dereferenceable(40) %is, ptr noundef nonnull %b.i7, i32 noundef 8)
  %5 = load i64, ptr %b.i7, align 8
  store i64 %5, ptr %z, align 8
  call void @llvm.lifetime.end.p0(i64 8, ptr nonnull %b.i7)
  ret void
}